Certificate:
    Data:
        Version: 3 (0x2)
        Serial Number: 2 (0x2)
    Signature Algorithm: sha256WithRSAEncryption
        Issuer: C=FR, ST=Radius, L=Somewhere, O=Example Inc./emailAddress=admin@example.org, CN=Example Certificate Authority
        Validity
            Not Before: Mar  6 09:34:39 2018 GMT
            Not After : May  5 09:34:39 2018 GMT
        Subject: C=FR, ST=Radius, O=Example Inc., CN=user@example.org/emailAddress=user@example.org
        Subject Public Key Info:
            Public Key Algorithm: rsaEncryption
                Public-Key: (2048 bit)
                Modulus:
                    00:92:fb:6d:72:cc:be:74:ca:d6:d4:32:70:10:3b:
                    3d:25:96:da:6c:cf:ed:4d:32:44:19:1f:6f:69:13:
                    ba:3d:2a:b6:37:e9:fc:15:9e:56:c2:33:79:44:9a:
                    64:d8:a9:50:3c:bd:11:33:b2:c6:ee:98:bc:c4:1f:
                    30:52:18:73:5d:7d:0a:fa:28:a8:53:0a:1d:70:23:
                    44:aa:af:5d:0f:29:af:95:d2:12:4e:4a:a8:07:25:
                    22:39:73:79:4e:35:3d:51:a2:fa:ef:4f:29:2b:1a:
                    83:8c:86:24:4b:92:aa:c6:f8:fb:a5:d6:fe:dd:fc:
                    37:af:4f:c4:b1:df:ba:7d:32:3c:3a:57:6d:fa:fa:
                    ff:f5:83:a3:28:14:7e:2f:8f:86:b7:07:0f:d4:b7:
                    c3:27:48:c1:e9:ae:cc:b5:78:89:66:f6:21:1f:2c:
                    9a:8d:30:19:72:0f:18:64:c9:8f:11:5c:72:af:17:
                    57:73:5f:3c:cf:9d:fb:d2:1f:f6:ae:59:9c:20:aa:
                    b7:f5:5f:a3:dd:eb:6e:db:0c:84:e4:f8:f2:17:33:
                    1e:07:38:78:71:ab:ef:2d:ed:f2:30:b8:09:8d:ab:
                    ac:1f:da:eb:ae:2e:e0:ec:78:8c:4f:17:62:20:18:
                    a3:3e:3c:05:01:d5:13:0c:b2:35:26:78:ef:94:47:
                    9b:b5
                Exponent: 65537 (0x10001)
        X509v3 extensions:
            X509v3 Extended Key Usage: 
                TLS Web Client Authentication
            X509v3 CRL Distribution Points: 

                Full Name:
                  URI:http://www.example.com/example_ca.crl

    Signature Algorithm: sha256WithRSAEncryption
         73:ff:89:2a:6f:46:0c:d8:dc:f8:0a:b1:8b:4e:c5:5c:3b:61:
         30:f5:d9:c8:18:0f:6f:db:9f:c9:9f:b8:6b:ba:76:19:51:2a:
         69:e3:d2:d8:57:1d:a0:b5:07:ec:87:2c:c4:51:74:6c:5a:b8:
         c0:87:76:00:68:35:cf:a3:3e:96:14:4f:2f:ce:3f:fc:88:7e:
         9d:cc:98:ac:55:2d:a3:9d:29:dd:40:ab:24:07:de:27:51:8f:
         8f:cf:9f:92:04:0d:4c:d0:ce:72:14:a6:43:61:fd:5f:46:00:
         43:38:8b:e8:39:c7:41:e5:4a:91:a0:0b:e3:79:f2:14:ca:1a:
         98:c5:f1:d5:96:c4:97:5f:62:d7:7c:63:47:9b:eb:f6:5c:a9:
         73:ad:4c:a6:d7:5f:1a:ef:2a:ad:3e:4f:15:ec:8a:7a:6b:71:
         a7:f9:61:4c:61:7b:29:7a:15:8f:a2:b3:a7:f2:af:f7:7d:0c:
         06:62:37:23:81:5b:e7:d6:ef:5c:5e:65:ff:be:fb:24:8a:f8:
         24:00:f7:5d:73:c0:30:69:15:e4:ad:7b:98:b4:50:f5:12:be:
         df:d1:28:dc:00:fc:ca:b5:c0:7e:a8:93:66:e1:1b:b9:0a:fe:
         3d:86:6a:13:25:5d:1e:c1:c1:b8:9f:fc:35:07:00:b9:52:90:
         89:14:d2:ec
-----BEGIN CERTIFICATE-----
MIIDzzCCAregAwIBAgIBAjANBgkqhkiG9w0BAQsFADCBkzELMAkGA1UEBhMCRlIx
DzANBgNVBAgMBlJhZGl1czESMBAGA1UEBwwJU29tZXdoZXJlMRUwEwYDVQQKDAxF
eGFtcGxlIEluYy4xIDAeBgkqhkiG9w0BCQEWEWFkbWluQGV4YW1wbGUub3JnMSYw
JAYDVQQDDB1FeGFtcGxlIENlcnRpZmljYXRlIEF1dGhvcml0eTAeFw0xODAzMDYw
OTM0MzlaFw0xODA1MDUwOTM0MzlaMHExCzAJBgNVBAYTAkZSMQ8wDQYDVQQIDAZS
YWRpdXMxFTATBgNVBAoMDEV4YW1wbGUgSW5jLjEZMBcGA1UEAwwQdXNlckBleGFt
cGxlLm9yZzEfMB0GCSqGSIb3DQEJARYQdXNlckBleGFtcGxlLm9yZzCCASIwDQYJ
KoZIhvcNAQEBBQADggEPADCCAQoCggEBAJL7bXLMvnTK1tQycBA7PSWW2mzP7U0y
RBkfb2kTuj0qtjfp/BWeVsIzeUSaZNipUDy9ETOyxu6YvMQfMFIYc119CvooqFMK
HXAjRKqvXQ8pr5XSEk5KqAclIjlzeU41PVGi+u9PKSsag4yGJEuSqsb4+6XW/t38
N69PxLHfun0yPDpXbfr6//WDoygUfi+PhrcHD9S3wydIwemuzLV4iWb2IR8smo0w
GXIPGGTJjxFccq8XV3NfPM+d+9If9q5ZnCCqt/Vfo93rbtsMhOT48hczHgc4eHGr
7y3t8jC4CY2rrB/a664u4Ox4jE8XYiAYoz48BQHVEwyyNSZ475RHm7UCAwEAAaNP
ME0wEwYDVR0lBAwwCgYIKwYBBQUHAwIwNgYDVR0fBC8wLTAroCmgJ4YlaHR0cDov
L3d3dy5leGFtcGxlLmNvbS9leGFtcGxlX2NhLmNybDANBgkqhkiG9w0BAQsFAAOC
AQEAc/+JKm9GDNjc+Aqxi07FXDthMPXZyBgPb9ufyZ+4a7p2GVEqaePS2FcdoLUH
7IcsxFF0bFq4wId2AGg1z6M+lhRPL84//Ih+ncyYrFUto50p3UCrJAfeJ1GPj8+f
kgQNTNDOchSmQ2H9X0YAQziL6DnHQeVKkaAL43nyFMoamMXx1ZbEl19i13xjR5vr
9lypc61MptdfGu8qrT5PFeyKemtxp/lhTGF7KXoVj6Kzp/Kv930MBmI3I4Fb59bv
XF5l/777JIr4JAD3XXPAMGkV5K17mLRQ9RK+39Eo3AD8yrXAfqiTZuEbuQr+PYZq
EyVdHsHBuJ/8NQcAuVKQiRTS7A==
-----END CERTIFICATE-----
