Certificate:
    Data:
        Version: 3 (0x2)
        Serial Number: 1 (0x1)
    Signature Algorithm: sha256WithRSAEncryption
        Issuer: C=FR, ST=Radius, L=Somewhere, O=Example Inc./emailAddress=admin@example.org, CN=Example Certificate Authority
        Validity
            Not Before: Mar  6 09:34:39 2018 GMT
            Not After : May  5 09:34:39 2018 GMT
        Subject: C=FR, ST=Radius, O=Example Inc., CN=Example Server Certificate/emailAddress=admin@example.org
        Subject Public Key Info:
            Public Key Algorithm: rsaEncryption
                Public-Key: (2048 bit)
                Modulus:
                    00:b1:78:d4:45:d1:6b:8a:f2:b1:d8:09:b0:71:17:
                    26:32:3d:8c:a8:bc:28:69:fa:43:c1:bf:db:70:c6:
                    7a:23:2b:27:0e:d8:e9:9c:af:cc:89:10:b2:9b:48:
                    2b:24:5a:33:79:2e:c9:86:87:34:27:4c:95:3c:dc:
                    df:83:92:88:17:32:5f:71:e8:cb:3f:53:17:3f:26:
                    d7:68:95:e6:df:a4:c6:94:5e:1c:2f:cc:7f:97:79:
                    7a:8c:1f:f3:af:85:53:d8:e3:b4:02:f9:2d:8b:95:
                    07:7a:5a:ac:ab:14:40:79:8b:f1:df:03:e7:65:49:
                    5b:ad:35:57:ba:62:96:1f:da:a5:31:0f:0b:dc:12:
                    7d:f7:0c:40:1f:54:ff:cf:6b:6f:df:9c:03:45:af:
                    df:08:a4:a0:a4:ff:91:cd:8d:1d:8d:39:7f:0c:59:
                    1f:d6:dd:2e:14:e7:0a:3f:c3:76:10:fa:a9:e0:20:
                    b0:0c:bc:d8:8a:6e:5a:3c:63:18:13:fc:af:3e:b2:
                    6c:4c:e5:dc:59:3a:1f:46:31:9d:b1:e8:5d:2f:0e:
                    bc:90:aa:33:c0:17:53:a6:b3:57:64:4d:99:ad:14:
                    06:ce:c1:1b:61:19:1c:6b:6a:77:b5:e0:a5:da:e0:
                    65:f2:82:8f:e4:d4:71:11:4a:83:db:3e:90:b5:1d:
                    41:39
                Exponent: 65537 (0x10001)
        X509v3 extensions:
            X509v3 Extended Key Usage: 
                TLS Web Server Authentication
            X509v3 CRL Distribution Points: 

                Full Name:
                  URI:http://www.example.com/example_ca.crl

    Signature Algorithm: sha256WithRSAEncryption
         8f:7f:35:44:ce:7b:9a:b9:c8:32:ea:06:44:db:74:23:69:e6:
         9a:9f:f8:5a:7b:77:9f:11:c9:98:6b:e2:08:bf:43:c8:27:4f:
         1c:16:0f:94:47:2b:1d:df:97:2e:2f:a4:76:7c:0b:83:5a:e8:
         e9:06:89:c8:7d:35:51:e5:86:a6:86:28:71:89:e0:58:c1:9e:
         c3:a9:8a:9e:ab:87:a6:78:c8:26:68:3a:71:cd:1e:ef:43:b1:
         98:4c:e8:b3:0e:67:e0:28:04:eb:c0:a9:2e:4d:c8:9a:e8:f2:
         fa:6b:5f:cc:fa:df:52:55:0e:88:0c:dc:33:99:42:24:4a:6f:
         45:40:61:13:35:a4:2f:1b:96:68:93:16:ab:97:7e:63:2a:f4:
         79:59:a2:ed:83:17:a1:af:92:4f:38:b8:4a:6f:21:5d:0b:e3:
         3e:cd:f3:b5:39:81:da:80:0b:ac:55:f7:08:4d:69:c8:03:6f:
         63:2c:79:92:6e:b1:50:b7:f4:82:9d:d3:74:2a:e6:bb:5e:be:
         c3:39:bc:28:91:2b:ba:f8:5c:3a:d7:a0:cb:29:21:1f:d7:4b:
         b6:37:fd:3a:fb:f1:25:df:93:72:b5:6c:61:b0:b1:6c:e9:6d:
         8c:82:85:d5:f6:45:60:d0:07:a5:a8:76:7f:9b:1d:c7:4c:93:
         b7:a1:ba:16
-----BEGIN CERTIFICATE-----
MIID2jCCAsKgAwIBAgIBATANBgkqhkiG9w0BAQsFADCBkzELMAkGA1UEBhMCRlIx
DzANBgNVBAgMBlJhZGl1czESMBAGA1UEBwwJU29tZXdoZXJlMRUwEwYDVQQKDAxF
eGFtcGxlIEluYy4xIDAeBgkqhkiG9w0BCQEWEWFkbWluQGV4YW1wbGUub3JnMSYw
JAYDVQQDDB1FeGFtcGxlIENlcnRpZmljYXRlIEF1dGhvcml0eTAeFw0xODAzMDYw
OTM0MzlaFw0xODA1MDUwOTM0MzlaMHwxCzAJBgNVBAYTAkZSMQ8wDQYDVQQIDAZS
YWRpdXMxFTATBgNVBAoMDEV4YW1wbGUgSW5jLjEjMCEGA1UEAwwaRXhhbXBsZSBT
ZXJ2ZXIgQ2VydGlmaWNhdGUxIDAeBgkqhkiG9w0BCQEWEWFkbWluQGV4YW1wbGUu
b3JnMIIBIjANBgkqhkiG9w0BAQEFAAOCAQ8AMIIBCgKCAQEAsXjURdFrivKx2Amw
cRcmMj2MqLwoafpDwb/bcMZ6IysnDtjpnK/MiRCym0grJFozeS7Jhoc0J0yVPNzf
g5KIFzJfcejLP1MXPybXaJXm36TGlF4cL8x/l3l6jB/zr4VT2OO0Avkti5UHelqs
qxRAeYvx3wPnZUlbrTVXumKWH9qlMQ8L3BJ99wxAH1T/z2tv35wDRa/fCKSgpP+R
zY0djTl/DFkf1t0uFOcKP8N2EPqp4CCwDLzYim5aPGMYE/yvPrJsTOXcWTofRjGd
sehdLw68kKozwBdTprNXZE2ZrRQGzsEbYRkca2p3teCl2uBl8oKP5NRxEUqD2z6Q
tR1BOQIDAQABo08wTTATBgNVHSUEDDAKBggrBgEFBQcDATA2BgNVHR8ELzAtMCug
KaAnhiVodHRwOi8vd3d3LmV4YW1wbGUuY29tL2V4YW1wbGVfY2EuY3JsMA0GCSqG
SIb3DQEBCwUAA4IBAQCPfzVEznuaucgy6gZE23Qjaeaan/hae3efEcmYa+IIv0PI
J08cFg+URysd35cuL6R2fAuDWujpBonIfTVR5YamhihxieBYwZ7DqYqeq4emeMgm
aDpxzR7vQ7GYTOizDmfgKATrwKkuTcia6PL6a1/M+t9SVQ6IDNwzmUIkSm9FQGET
NaQvG5Zokxarl35jKvR5WaLtgxehr5JPOLhKbyFdC+M+zfO1OYHagAusVfcITWnI
A29jLHmSbrFQt/SCndN0Kua7Xr7DObwokSu6+Fw616DLKSEf10u2N/06+/El35Ny
tWxhsLFs6W2MgoXV9kVg0AelqHZ/mx3HTJO3oboW
-----END CERTIFICATE-----
